csupybot.ircutils
IrcDict
p1
((dp2
S'#ugmetalforum'
p3
(lp4
(lp5
S'\xe2\x98\xa0Welcome to the UG metal forum irc channel where Blasphemy is on your couch and bullets rain from the sky\xe2\x98\xa0'
p6
aastRp7
.csupybot.ircutils
IrcDict
p1
((dtRp2
.csupybot.ircutils
IrcDict
p1
((dtRp2
.csupybot.ircutils
IrcSet
p1
((ltRp2
.